-----BEGIN RSA PRIVATE KEY-----
MIICWwIBAAKBgQDFx1BOM12GN8nVBMEpG+CAMijWxmpObiIXrsI+LPDoK+hkgvT8
WlrlKvEPHMWjR5Y/Yp6OtVZXe84gjWhiEoMM1UFHGNMA90ZsOvGgj8dZC+NqmiD3
Pd5kDa4X8NSnEb8JXVx+l7G/8NbgaFFSlBIeCMeSkXrhzy3JMlF3t0pcqQIDAQAB
AoGAO6+02oTB2rmHXZP7vy48iDObA4YJmvW9sCv7Tsw9P7PQhFTJHkceWz6kVQ03
z9jQzPw0IZk0H16rjENglwhDJ9ptNrSAUewiExJDCU24ALcy0PGI4ebpJ27u4GG7
Hb9bLCmATEIXl8hiOM9q3iE60+/gK0zFnhiEX2k9tXmSfqECQQDnk1tmQzV8qB+A
7YvZeitHP2m0/sHylMM7cj+KlK44SB+UrAIYtpJx8PivAkiYiMgLKkJCqzLwB01D
GQO5VW5VAkEA2qNr8nbcHmG7zg0lqJcU3/U11IQltmvzTBTeKhgcv8W4dbbo1FwM
v53LH32DPNZ9sVlYHRh+M6P8pr9RIY1hBQJAJOvwqahTkdF4XGUDZCQ/XDe3Ed2A
bL3dNtArY1v7Pwv4xQp7txb82F/UNosFqhQ82NLfB6QmFfEEF4uYdWcylQJAf5HA
521AzB1cdkKniXH1xSMPMJuWYZUlFWxLoKYHCEI2ecCqo1W+PoO0RAB49aN1HWiz
B+8Fm94ACc8xaHFUfQJAKFaUCuy7mnIBhRnuo2izpokvbyWn9SmZmpWTHltYUaOs
b+b2PpGhePciHZ5KsXCgMN97ltVsd/OdWY6uoA2IwA==
-----END RSA PRIVATE KEY-----
Certificate:
    Data:
        Version: 3 (0x2)
        Serial Number: 3 (0x3)
    Signature Algorithm: sha256WithRSAEncryption
        Issuer: C=KR, CN=heeeye0n
        Validity
            Not Before: Mar  1 00:00:00 2014 GMT
            Not After : Feb 27 00:00:00 2024 GMT
        Subject: C=KR, CN=bam.nr-data.net
        Subject Public Key Info:
            Public Key Algorithm: rsaEncryption
                Public-Key: (1024 bit)
                Modulus:
                    00:c5:c7:50:4e:33:5d:86:37:c9:d5:04:c1:29:1b:
                    e0:80:32:28:d6:c6:6a:4e:6e:22:17:ae:c2:3e:2c:
                    f0:e8:2b:e8:64:82:f4:fc:5a:5a:e5:2a:f1:0f:1c:
                    c5:a3:47:96:3f:62:9e:8e:b5:56:57:7b:ce:20:8d:
                    68:62:12:83:0c:d5:41:47:18:d3:00:f7:46:6c:3a:
                    f1:a0:8f:c7:59:0b:e3:6a:9a:20:f7:3d:de:64:0d:
                    ae:17:f0:d4:a7:11:bf:09:5d:5c:7e:97:b1:bf:f0:
                    d6:e0:68:51:52:94:12:1e:08:c7:92:91:7a:e1:cf:
                    2d:c9:32:51:77:b7:4a:5c:a9
                Exponent: 65537 (0x10001)
        X509v3 extensions:
            X509v3 Basic Constraints: 
                CA:FALSE
            Netscape Comment: 
                OpenSSL Generated Certificate
            X509v3 Subject Key Identifier: 
                C4:90:00:02:49:89:39:FF:2E:5E:55:DE:77:A4:62:A5:55:99:93:67
            X509v3 Authority Key Identifier: 
                DirName:/C=KR/CN=heeeye0n
                serial:DB:31:73:E8:30:4C:09:3A

    Signature Algorithm: sha256WithRSAEncryption
         9e:28:8c:da:48:54:53:72:65:28:1c:d8:69:cd:a5:bf:5e:f3:
         75:3f:4f:01:f5:2b:c2:e9:35:87:7a:53:c9:0c:70:f5:ba:6f:
         09:0e:43:ff:4a:79:08:a9:2b:4e:dc:05:95:83:8e:0a:9b:8a:
         8f:d0:e3:c3:8a:c9:60:27:9a:d1:7b:d6:49:36:87:06:ef:e4:
         d7:b5:da:b7:f1:ea:4e:90:33:4c:4b:6e:5f:f4:94:ca:9e:e3:
         63:9f:85:3f:f1:d5:39:ad:5e:93:ff:77:0d:4f:b6:dc:bc:24:
         37:3d:5e:a3:8e:66:e0:97:38:8c:07:20:dd:40:0b:90:34:52:
         45:93
-----BEGIN CERTIFICATE-----
MIICWTCCAcKgAwIBAgIBAzANBgkqhkiG9w0BAQsFADAgMQswCQYDVQQGEwJLUjER
MA8GA1UEAwwIaGVlZXllMG4wIhgPMjAxNDAzMDEwMDAwMDBaGA8yMDI0MDIyNzAw
MDAwMFowJzELMAkGA1UEBhMCS1IxGDAWBgNVBAMMD2JhbS5uci1kYXRhLm5ldDCB
nzANBgkqhkiG9w0BAQEFAAOBjQAwgYkCgYEAxcdQTjNdhjfJ1QTBKRvggDIo1sZq
Tm4iF67CPizw6CvoZIL0/Fpa5SrxDxzFo0eWP2KejrVWV3vOII1oYhKDDNVBRxjT
APdGbDrxoI/HWQvjapog9z3eZA2uF/DUpxG/CV1cfpexv/DW4GhRUpQSHgjHkpF6
4c8tyTJRd7dKXKkCAwEAAaOBlzCBlDAJBgNVHRMEAjAAMCwGCWCGSAGG+EIBDQQf
Fh1PcGVuU1NMIEdlbmVyYXRlZCBDZXJ0aWZpY2F0ZTAdBgNVHQ4EFgQUxJAAAkmJ
Of8uXlXed6RipVWZk2cwOgYDVR0jBDMwMaEkpCIwIDELMAkGA1UEBhMCS1IxETAP
BgNVBAMMCGhlZWV5ZTBuggkA2zFz6DBMCTowDQYJKoZIhvcNAQELBQADgYEAniiM
2khUU3JlKBzYac2lv17zdT9PAfUrwuk1h3pTyQxw9bpvCQ5D/0p5CKkrTtwFlYOO
CpuKj9Djw4rJYCea0XvWSTaHBu/k17Xat/HqTpAzTEtuX/SUyp7jY5+FP/HVOa1e
k/93DU+23LwkNz1eo45m4Jc4jAcg3UALkDRSRZM=
-----END CERTIFICATE-----
