-----BEGIN RSA PRIVATE KEY-----
MIICXQIBAAKBgQDbW2lJ2CoTgFRbFAoFILzllWf4ubTCDycD7rnG0Wwsb6qLoxY/
+DBqxTpOKNTsX0OBWPv+gNTKsMHytRab5v49WS+sHa2+2S7eBFgoAKer+2QIwUpM
5z6dhg4QeZj44I2wrgk1o2csVmTTJpTNsXi4Gur9eeMEswQg3dY4VGmGjwIDAQAB
AoGAcDbFF+ejLrK5dJY9wf3LZE8YDx9BHv0NYm+fTdwYUGsXfbOCUFswuY4Hk7BD
rF/XcrYIw1s4gDAIJ5cH5901NU4g3NjjO/uc+ykH01IJaDD3gtQIXfkUPMfsoI1M
GDh1YXE4Qxn2byN30gz4ukNSOzZk6kHveO4Bu4wP41vyZ3ECQQD75LwzyEyiCA4E
RqteuOs+51rSIvzWUbEctTE9MohUzb1+DHipqgBlejsZS7VJ4aPXTSaAcYWBXwts
cgidKiF1AkEA3u7jEnEtA0Qkwh5fnghkckTJVc0OihMSxdpAHtBaTlhguhtmv+iQ
xApshXu+Asr/u/EI/4IfBDyouZ2czZOjcwJAAyy82oI5xQkI9DDX1BfMjzxnPqLG
QQVCkDQQbM8IPNli/AW4N5s26hCCUi1MGaRIZlxIkfHcVucVw8YkKabwSQJBAKwO
Csps9qSSrxvyfTFmoL9gP1MtE4+U8OQqcVpWy5uzsdNw2ng6caAbu2259wgIzB6t
BJjOQEnw1veKoT44N+kCQQDc+Xk+klyj9lZ/MHVIc3l7ariblX/OZ+qoanWiWZ9O
Hz/ylFZwHD/Fn37xIsdr3Dyamm4eMqXPY8iar9Yz1V/y
-----END RSA PRIVATE KEY-----
Certificate:
    Data:
        Version: 3 (0x2)
        Serial Number: 9 (0x9)
    Signature Algorithm: sha256WithRSAEncryption
        Issuer: C=KR, CN=heeeye0n
        Validity
            Not Before: Mar  1 00:00:00 2014 GMT
            Not After : Feb 27 00:00:00 2024 GMT
        Subject: C=KR, CN=castbox.shopping.naver.com
        Subject Public Key Info:
            Public Key Algorithm: rsaEncryption
                Public-Key: (1024 bit)
                Modulus:
                    00:db:5b:69:49:d8:2a:13:80:54:5b:14:0a:05:20:
                    bc:e5:95:67:f8:b9:b4:c2:0f:27:03:ee:b9:c6:d1:
                    6c:2c:6f:aa:8b:a3:16:3f:f8:30:6a:c5:3a:4e:28:
                    d4:ec:5f:43:81:58:fb:fe:80:d4:ca:b0:c1:f2:b5:
                    16:9b:e6:fe:3d:59:2f:ac:1d:ad:be:d9:2e:de:04:
                    58:28:00:a7:ab:fb:64:08:c1:4a:4c:e7:3e:9d:86:
                    0e:10:79:98:f8:e0:8d:b0:ae:09:35:a3:67:2c:56:
                    64:d3:26:94:cd:b1:78:b8:1a:ea:fd:79:e3:04:b3:
                    04:20:dd:d6:38:54:69:86:8f
                Exponent: 65537 (0x10001)
        X509v3 extensions:
            X509v3 Basic Constraints: 
                CA:FALSE
            Netscape Comment: 
                OpenSSL Generated Certificate
            X509v3 Subject Key Identifier: 
                9E:9D:EE:2A:68:9D:ED:81:8B:11:45:D5:F7:83:BE:CB:FE:1D:27:B2
            X509v3 Authority Key Identifier: 
                DirName:/C=KR/CN=heeeye0n
                serial:DB:31:73:E8:30:4C:09:3A

    Signature Algorithm: sha256WithRSAEncryption
         1b:e2:f5:d8:0b:55:a1:91:c0:c7:b6:95:d0:51:df:0c:9d:5c:
         6e:ac:b1:2c:d1:b0:19:b8:eb:40:f8:f5:be:1a:02:75:d2:f5:
         3e:fc:e5:12:84:99:aa:00:55:f7:11:02:79:e4:89:34:40:b3:
         2a:66:a7:6d:36:94:bd:52:15:97:96:a8:a4:cd:75:23:69:dd:
         f3:b2:84:f7:f9:8d:d7:8c:67:a0:7a:89:b1:3f:0f:68:91:f2:
         5d:69:fd:d4:06:b8:93:c4:5f:c8:bc:03:04:e4:d6:a6:0a:58:
         fe:52:f1:09:48:a8:18:78:46:f3:2f:ca:b7:77:91:c7:09:1d:
         4e:df
-----BEGIN CERTIFICATE-----
MIICZDCCAc2gAwIBAgIBCTANBgkqhkiG9w0BAQsFADAgMQswCQYDVQQGEwJLUjER
MA8GA1UEAwwIaGVlZXllMG4wIhgPMjAxNDAzMDEwMDAwMDBaGA8yMDI0MDIyNzAw
MDAwMFowMjELMAkGA1UEBhMCS1IxIzAhBgNVBAMMGmNhc3Rib3guc2hvcHBpbmcu
bmF2ZXIuY29tMIGfMA0GCSqGSIb3DQEBAQUAA4GNADCBiQKBgQDbW2lJ2CoTgFRb
FAoFILzllWf4ubTCDycD7rnG0Wwsb6qLoxY/+DBqxTpOKNTsX0OBWPv+gNTKsMHy
tRab5v49WS+sHa2+2S7eBFgoAKer+2QIwUpM5z6dhg4QeZj44I2wrgk1o2csVmTT
JpTNsXi4Gur9eeMEswQg3dY4VGmGjwIDAQABo4GXMIGUMAkGA1UdEwQCMAAwLAYJ
YIZIAYb4QgENBB8WHU9wZW5TU0wgR2VuZXJhdGVkIENlcnRpZmljYXRlMB0GA1Ud
DgQWBBSene4qaJ3tgYsRRdX3g77L/h0nsjA6BgNVHSMEMzAxoSSkIjAgMQswCQYD
VQQGEwJLUjERMA8GA1UEAwwIaGVlZXllMG6CCQDbMXPoMEwJOjANBgkqhkiG9w0B
AQsFAAOBgQAb4vXYC1WhkcDHtpXQUd8MnVxurLEs0bAZuOtA+PW+GgJ10vU+/OUS
hJmqAFX3EQJ55Ik0QLMqZqdtNpS9UhWXlqikzXUjad3zsoT3+Y3XjGegeomxPw9o
kfJdaf3UBriTxF/IvAME5NamClj+UvEJSKgYeEbzL8q3d5HHCR1O3w==
-----END CERTIFICATE-----
