Certificate:
    Data:
        Version: 3 (0x2)
        Serial Number: 2 (0x2)
    Signature Algorithm: sha256WithRSAEncryption
        Issuer: C=KR, CN=heeeye0n
        Validity
            Not Before: Mar  1 00:00:00 2014 GMT
            Not After : Feb 27 00:00:00 2024 GMT
        Subject: C=KR, CN=kulms.korea.ac.kr
        Subject Public Key Info:
            Public Key Algorithm: rsaEncryption
                Public-Key: (1024 bit)
                Modulus:
                    00:a2:1d:77:2a:4f:ca:05:5a:17:2f:4d:5b:56:40:
                    64:9b:a1:1e:a5:36:f8:6e:0d:2d:2e:53:45:bb:15:
                    35:a9:85:cd:79:c4:31:60:51:71:ca:5f:49:b1:d7:
                    e4:dc:f3:5e:14:01:ce:d0:a1:91:eb:bf:f9:64:7d:
                    52:ba:98:0f:df:62:d0:95:18:05:fa:96:9a:cd:3d:
                    14:a5:85:64:83:fa:ef:29:ef:ba:fe:87:4e:8c:12:
                    5c:84:db:88:53:c4:bc:ce:9b:86:75:54:90:5c:3d:
                    85:8e:4e:d1:ed:6e:8e:2b:86:19:f8:d5:dd:0f:c1:
                    08:c3:e5:f6:9e:27:b7:2e:63
                Exponent: 65537 (0x10001)
        X509v3 extensions:
            X509v3 Basic Constraints: 
                CA:FALSE
            Netscape Comment: 
                OpenSSL Generated Certificate
            X509v3 Subject Key Identifier: 
                98:E5:88:4F:63:99:06:A6:8F:C6:76:99:7A:74:AC:43:2F:44:50:C5
            X509v3 Authority Key Identifier: 
                DirName:/C=KR/CN=heeeye0n
                serial:DB:31:73:E8:30:4C:09:3A

    Signature Algorithm: sha256WithRSAEncryption
         00:09:0d:0e:09:49:54:64:2a:69:37:88:2f:9a:fd:08:23:d9:
         9f:54:8e:fe:15:00:63:23:4e:e4:bf:ba:d9:48:2f:0a:09:8a:
         1e:5a:a6:17:14:ab:35:3f:db:a6:8e:bf:e6:71:d4:b1:e1:ed:
         66:32:5c:f4:55:a1:38:70:2d:ed:41:6b:0a:d7:1e:49:28:65:
         f7:aa:bf:be:20:58:16:47:e3:bf:30:56:17:e9:0c:ae:d1:14:
         a5:ba:c3:f6:44:b7:94:a0:88:d3:93:a2:aa:1c:66:97:2b:20:
         55:10:61:16:5f:32:ff:34:66:b2:ed:82:cd:d5:78:53:6e:d5:
         11:dd
-----BEGIN CERTIFICATE-----
MIICWzCCAcSgAwIBAgIBAjANBgkqhkiG9w0BAQsFADAgMQswCQYDVQQGEwJLUjER
MA8GA1UEAwwIaGVlZXllMG4wIhgPMjAxNDAzMDEwMDAwMDBaGA8yMDI0MDIyNzAw
MDAwMFowKTELMAkGA1UEBhMCS1IxGjAYBgNVBAMMEWt1bG1zLmtvcmVhLmFjLmty
MIGfMA0GCSqGSIb3DQEBAQUAA4GNADCBiQKBgQCiHXcqT8oFWhcvTVtWQGSboR6l
NvhuDS0uU0W7FTWphc15xDFgUXHKX0mx1+Tc814UAc7QoZHrv/lkfVK6mA/fYtCV
GAX6lprNPRSlhWSD+u8p77r+h06MElyE24hTxLzOm4Z1VJBcPYWOTtHtbo4rhhn4
1d0PwQjD5faeJ7cuYwIDAQABo4GXMIGUMAkGA1UdEwQCMAAwLAYJYIZIAYb4QgEN
BB8WHU9wZW5TU0wgR2VuZXJhdGVkIENlcnRpZmljYXRlMB0GA1UdDgQWBBSY5YhP
Y5kGpo/Gdpl6dKxDL0RQxTA6BgNVHSMEMzAxoSSkIjAgMQswCQYDVQQGEwJLUjER
MA8GA1UEAwwIaGVlZXllMG6CCQDbMXPoMEwJOjANBgkqhkiG9w0BAQsFAAOBgQAA
CQ0OCUlUZCppN4gvmv0II9mfVI7+FQBjI07kv7rZSC8KCYoeWqYXFKs1P9umjr/m
cdSx4e1mMlz0VaE4cC3tQWsK1x5JKGX3qr++IFgWR+O/MFYX6Qyu0RSlusP2RLeU
oIjTk6KqHGaXKyBVEGEWXzL/NGay7YLN1XhTbtUR3Q==
-----END CERTIFICATE-----
