Certificate:
    Data:
        Version: 3 (0x2)
        Serial Number: 4 (0x4)
    Signature Algorithm: sha256WithRSAEncryption
        Issuer: C=KR, CN=heeeye0n
        Validity
            Not Before: Mar  1 00:00:00 2014 GMT
            Not After : Feb 27 00:00:00 2024 GMT
        Subject: C=KR, CN=www.naver.com
        Subject Public Key Info:
            Public Key Algorithm: rsaEncryption
                Public-Key: (1024 bit)
                Modulus:
                    00:cc:2c:1b:a0:37:bd:e6:80:5d:f0:1e:44:dc:e3:
                    6f:c9:73:e2:cf:64:e6:bd:d8:a5:74:d6:e3:1c:95:
                    0c:a8:f6:67:fa:0f:a7:12:79:7b:2d:1f:70:da:76:
                    12:27:79:11:cf:30:4c:cc:e3:f4:be:7d:47:92:97:
                    22:0e:54:bc:e2:1c:61:72:bd:a4:4e:54:e9:ba:b6:
                    f8:63:3b:3c:32:ba:48:cd:99:ae:c0:f2:3c:da:ee:
                    62:d6:9e:b8:2d:f3:07:c1:d9:74:f4:b8:75:b4:d5:
                    a2:b5:16:9c:3b:64:17:31:21:71:90:12:49:5e:9f:
                    80:ed:0a:1c:00:53:dd:16:49
                Exponent: 65537 (0x10001)
        X509v3 extensions:
            X509v3 Basic Constraints: 
                CA:FALSE
            Netscape Comment: 
                OpenSSL Generated Certificate
            X509v3 Subject Key Identifier: 
                C8:1E:98:9B:2E:15:C0:12:8F:90:A2:E8:94:7D:61:B9:F8:36:02:F7
            X509v3 Authority Key Identifier: 
                DirName:/C=KR/CN=heeeye0n
                serial:DB:31:73:E8:30:4C:09:3A

    Signature Algorithm: sha256WithRSAEncryption
         92:f9:ad:99:c9:67:7f:5f:c8:6a:2f:ca:10:37:85:20:42:7c:
         bf:55:38:1e:c0:f9:18:7f:96:ad:43:60:72:f0:e1:51:5f:36:
         17:d5:cb:19:86:5b:c1:61:d5:4c:b6:54:11:59:3e:81:a2:4b:
         3d:e5:99:91:a2:2d:d9:68:c5:ca:49:90:cb:a6:48:72:a2:29:
         c3:2e:ae:e9:99:e1:db:61:23:92:12:0b:6f:8e:c8:76:e5:c3:
         2e:ad:4f:7e:15:b9:0c:87:9d:30:f4:74:a1:bc:fe:b7:7c:7e:
         1c:38:f6:6b:a4:ce:a6:26:c9:d5:59:d4:2c:71:69:2d:66:90:
         6b:06
-----BEGIN CERTIFICATE-----
MIICVzCCAcCgAwIBAgIBBDANBgkqhkiG9w0BAQsFADAgMQswCQYDVQQGEwJLUjER
MA8GA1UEAwwIaGVlZXllMG4wIhgPMjAxNDAzMDEwMDAwMDBaGA8yMDI0MDIyNzAw
MDAwMFowJTELMAkGA1UEBhMCS1IxFjAUBgNVBAMMDXd3dy5uYXZlci5jb20wgZ8w
DQYJKoZIhvcNAQEBBQADgY0AMIGJAoGBAMwsG6A3veaAXfAeRNzjb8lz4s9k5r3Y
pXTW4xyVDKj2Z/oPpxJ5ey0fcNp2Eid5Ec8wTMzj9L59R5KXIg5UvOIcYXK9pE5U
6bq2+GM7PDK6SM2ZrsDyPNruYtaeuC3zB8HZdPS4dbTVorUWnDtkFzEhcZASSV6f
gO0KHABT3RZJAgMBAAGjgZcwgZQwCQYDVR0TBAIwADAsBglghkgBhvhCAQ0EHxYd
T3BlblNTTCBHZW5lcmF0ZWQgQ2VydGlmaWNhdGUwHQYDVR0OBBYEFMgemJsuFcAS
j5Ci6JR9Ybn4NgL3MDoGA1UdIwQzMDGhJKQiMCAxCzAJBgNVBAYTAktSMREwDwYD
VQQDDAhoZWVleWUwboIJANsxc+gwTAk6MA0GCSqGSIb3DQEBCwUAA4GBAJL5rZnJ
Z39fyGovyhA3hSBCfL9VOB7A+Rh/lq1DYHLw4VFfNhfVyxmGW8Fh1Uy2VBFZPoGi
Sz3lmZGiLdloxcpJkMumSHKiKcMurumZ4dthI5ISC2+OyHblwy6tT34VuQyHnTD0
dKG8/rd8fhw49mukzqYmydVZ1CxxaS1mkGsG
-----END CERTIFICATE-----
