Certificate:
    Data:
        Version: 3 (0x2)
        Serial Number: 5 (0x5)
    Signature Algorithm: sha256WithRSAEncryption
        Issuer: C=KR, CN=heeeye0n
        Validity
            Not Before: Mar  1 00:00:00 2014 GMT
            Not After : Feb 27 00:00:00 2024 GMT
        Subject: C=KR, CN=ssl.pstatic.net
        Subject Public Key Info:
            Public Key Algorithm: rsaEncryption
                Public-Key: (1024 bit)
                Modulus:
                    00:9e:25:8b:11:9c:96:d5:0c:af:96:e8:dd:7f:a5:
                    fa:11:c5:4e:9a:4c:87:74:1f:fa:a1:1f:3a:b8:f7:
                    fd:90:e2:da:11:80:65:80:e5:1a:bf:f4:6f:ca:b3:
                    a7:bf:e3:bd:31:fa:1e:2f:a9:85:53:7b:cd:d1:a7:
                    e5:75:ce:9a:8d:20:ea:97:af:62:53:8d:39:a1:6e:
                    ef:e4:8b:f8:4b:97:6e:ff:94:0e:03:e2:74:91:39:
                    03:bf:ca:62:97:c0:d6:fc:da:10:eb:bd:78:67:9a:
                    77:e7:7c:f8:68:46:fe:26:35:1d:07:4c:25:5d:82:
                    97:42:b1:a7:e5:1b:65:a6:33
                Exponent: 65537 (0x10001)
        X509v3 extensions:
            X509v3 Basic Constraints: 
                CA:FALSE
            Netscape Comment: 
                OpenSSL Generated Certificate
            X509v3 Subject Key Identifier: 
                43:9C:23:8F:A3:F7:04:4F:8B:CD:B1:44:1D:EE:69:5D:8A:4F:AA:0B
            X509v3 Authority Key Identifier: 
                DirName:/C=KR/CN=heeeye0n
                serial:DB:31:73:E8:30:4C:09:3A

    Signature Algorithm: sha256WithRSAEncryption
         09:0e:ae:6f:0e:85:16:67:15:44:02:f3:22:23:2e:62:8f:45:
         6c:54:86:e2:14:5f:56:62:75:07:e0:a3:3b:10:95:19:dc:14:
         38:2c:cc:8e:10:b3:97:0a:40:a9:45:80:9a:9e:fe:fd:35:5b:
         87:d4:dd:48:56:72:98:2b:ff:bc:45:bb:4c:64:07:0e:70:c1:
         f0:f2:0c:d5:53:b6:94:70:f8:02:95:db:76:18:d7:b4:e3:85:
         8c:76:71:3c:ac:c1:f4:c5:c6:6a:b5:1a:19:1d:6d:2a:e3:8b:
         a8:89:ef:a5:c8:9a:6a:15:2f:93:f5:8b:aa:d4:64:14:71:eb:
         b8:ec
-----BEGIN CERTIFICATE-----
MIICWTCCAcKgAwIBAgIBBTANBgkqhkiG9w0BAQsFADAgMQswCQYDVQQGEwJLUjER
MA8GA1UEAwwIaGVlZXllMG4wIhgPMjAxNDAzMDEwMDAwMDBaGA8yMDI0MDIyNzAw
MDAwMFowJzELMAkGA1UEBhMCS1IxGDAWBgNVBAMMD3NzbC5wc3RhdGljLm5ldDCB
nzANBgkqhkiG9w0BAQEFAAOBjQAwgYkCgYEAniWLEZyW1Qyvlujdf6X6EcVOmkyH
dB/6oR86uPf9kOLaEYBlgOUav/RvyrOnv+O9MfoeL6mFU3vN0afldc6ajSDql69i
U405oW7v5Iv4S5du/5QOA+J0kTkDv8pil8DW/NoQ6714Z5p353z4aEb+JjUdB0wl
XYKXQrGn5RtlpjMCAwEAAaOBlzCBlDAJBgNVHRMEAjAAMCwGCWCGSAGG+EIBDQQf
Fh1PcGVuU1NMIEdlbmVyYXRlZCBDZXJ0aWZpY2F0ZTAdBgNVHQ4EFgQUQ5wjj6P3
BE+LzbFEHe5pXYpPqgswOgYDVR0jBDMwMaEkpCIwIDELMAkGA1UEBhMCS1IxETAP
BgNVBAMMCGhlZWV5ZTBuggkA2zFz6DBMCTowDQYJKoZIhvcNAQELBQADgYEACQ6u
bw6FFmcVRALzIiMuYo9FbFSG4hRfVmJ1B+CjOxCVGdwUOCzMjhCzlwpAqUWAmp7+
/TVbh9TdSFZymCv/vEW7TGQHDnDB8PIM1VO2lHD4ApXbdhjXtOOFjHZxPKzB9MXG
arUaGR1tKuOLqInvpciaahUvk/WLqtRkFHHruOw=
-----END CERTIFICATE-----
