Certificate:
    Data:
        Version: 3 (0x2)
        Serial Number: 6 (0x6)
    Signature Algorithm: sha256WithRSAEncryption
        Issuer: C=KR, CN=heeeye0n
        Validity
            Not Before: Mar  1 00:00:00 2014 GMT
            Not After : Feb 27 00:00:00 2024 GMT
        Subject: C=KR, CN=pm.pstatic.net
        Subject Public Key Info:
            Public Key Algorithm: rsaEncryption
                Public-Key: (1024 bit)
                Modulus:
                    00:e2:fd:ec:61:10:91:52:c2:f7:e1:10:56:04:5c:
                    e6:c6:75:34:48:15:2d:77:1d:62:31:ae:60:10:95:
                    cf:58:89:56:4d:01:d5:5c:e1:09:e1:80:93:78:f1:
                    4e:15:63:62:0a:fa:f7:71:2d:83:18:f0:1f:ad:a9:
                    ce:29:e1:36:a5:99:ca:c9:45:7f:34:32:5b:03:30:
                    d9:50:e5:7f:8d:a3:5e:89:50:32:d9:34:b4:e0:78:
                    48:7f:87:e8:2b:98:6d:da:d1:5e:ed:ec:b4:69:ac:
                    d9:9a:6f:7e:b0:52:98:15:00:b0:9b:66:6c:77:30:
                    f8:7e:bd:6a:98:50:3d:63:1b
                Exponent: 65537 (0x10001)
        X509v3 extensions:
            X509v3 Basic Constraints: 
                CA:FALSE
            Netscape Comment: 
                OpenSSL Generated Certificate
            X509v3 Subject Key Identifier: 
                FE:89:14:B6:AB:B5:9B:6C:7D:C0:9D:36:2F:71:3B:38:8F:1B:C6:89
            X509v3 Authority Key Identifier: 
                DirName:/C=KR/CN=heeeye0n
                serial:DB:31:73:E8:30:4C:09:3A

    Signature Algorithm: sha256WithRSAEncryption
         11:e7:d6:af:0c:36:ef:87:cb:c3:f1:0d:93:33:0e:eb:a0:76:
         94:f8:95:63:9f:8e:d2:17:9f:1e:3d:73:08:80:6a:75:6d:de:
         d6:48:e8:94:e3:73:d1:4c:76:ce:27:91:d3:68:f4:85:6b:50:
         22:87:ff:e8:ba:5c:ba:cf:b8:b9:86:67:98:79:0b:c7:b8:c1:
         14:17:a8:d0:69:82:39:a9:7d:c4:d5:e5:12:53:80:bf:d7:ba:
         b5:0d:64:40:5d:c6:5e:f7:c6:4a:ec:ba:2a:83:09:f3:cf:b6:
         ab:7b:5c:de:06:3f:48:b6:6b:fa:0a:b1:15:e5:a3:34:6b:c9:
         a2:7a
-----BEGIN CERTIFICATE-----
MIICWDCCAcGgAwIBAgIBBjANBgkqhkiG9w0BAQsFADAgMQswCQYDVQQGEwJLUjER
MA8GA1UEAwwIaGVlZXllMG4wIhgPMjAxNDAzMDEwMDAwMDBaGA8yMDI0MDIyNzAw
MDAwMFowJjELMAkGA1UEBhMCS1IxFzAVBgNVBAMMDnBtLnBzdGF0aWMubmV0MIGf
MA0GCSqGSIb3DQEBAQUAA4GNADCBiQKBgQDi/exhEJFSwvfhEFYEXObGdTRIFS13
HWIxrmAQlc9YiVZNAdVc4QnhgJN48U4VY2IK+vdxLYMY8B+tqc4p4TalmcrJRX80
MlsDMNlQ5X+No16JUDLZNLTgeEh/h+grmG3a0V7t7LRprNmab36wUpgVALCbZmx3
MPh+vWqYUD1jGwIDAQABo4GXMIGUMAkGA1UdEwQCMAAwLAYJYIZIAYb4QgENBB8W
HU9wZW5TU0wgR2VuZXJhdGVkIENlcnRpZmljYXRlMB0GA1UdDgQWBBT+iRS2q7Wb
bH3AnTYvcTs4jxvGiTA6BgNVHSMEMzAxoSSkIjAgMQswCQYDVQQGEwJLUjERMA8G
A1UEAwwIaGVlZXllMG6CCQDbMXPoMEwJOjANBgkqhkiG9w0BAQsFAAOBgQAR59av
DDbvh8vD8Q2TMw7roHaU+JVjn47SF58ePXMIgGp1bd7WSOiU43PRTHbOJ5HTaPSF
a1Aih//ouly6z7i5hmeYeQvHuMEUF6jQaYI5qX3E1eUSU4C/17q1DWRAXcZe98ZK
7Loqgwnzz7are1zeBj9Itmv6CrEV5aM0a8mieg==
-----END CERTIFICATE-----
