Certificate:
    Data:
        Version: 3 (0x2)
        Serial Number: 7 (0x7)
    Signature Algorithm: sha256WithRSAEncryption
        Issuer: C=KR, CN=heeeye0n
        Validity
            Not Before: Mar  1 00:00:00 2014 GMT
            Not After : Feb 27 00:00:00 2024 GMT
        Subject: C=KR, CN=s.pstatic.net
        Subject Public Key Info:
            Public Key Algorithm: rsaEncryption
                Public-Key: (1024 bit)
                Modulus:
                    00:93:2a:53:87:e0:3a:2e:48:cf:8f:7e:9d:2e:a0:
                    45:d6:96:c4:ae:42:bd:9f:28:99:e7:ec:fa:ef:5e:
                    03:87:c7:41:f4:60:89:10:8f:ba:47:10:47:a7:4b:
                    8e:f9:1c:10:7d:e6:e1:94:46:2c:b6:fc:58:88:7b:
                    b1:4a:97:b4:9c:61:d5:ca:15:fe:37:9c:ec:80:23:
                    be:d5:c2:f1:78:1d:5d:62:91:38:50:f4:eb:a4:26:
                    3e:bb:67:c3:90:43:58:41:8d:f2:e5:e6:85:13:be:
                    0d:c8:1c:a2:be:e4:b0:ec:0e:81:8f:08:5b:d9:a9:
                    17:4b:b3:80:3e:f3:bd:04:63
                Exponent: 65537 (0x10001)
        X509v3 extensions:
            X509v3 Basic Constraints: 
                CA:FALSE
            Netscape Comment: 
                OpenSSL Generated Certificate
            X509v3 Subject Key Identifier: 
                1F:5E:A6:A2:5E:A3:1B:21:0C:E8:0D:1C:74:E4:49:AE:3B:37:C9:25
            X509v3 Authority Key Identifier: 
                DirName:/C=KR/CN=heeeye0n
                serial:DB:31:73:E8:30:4C:09:3A

    Signature Algorithm: sha256WithRSAEncryption
         6b:6d:37:8b:2c:e2:d8:a9:e1:f2:66:13:77:a7:43:6a:64:ae:
         b6:4f:c1:3a:17:3c:f0:6c:c4:e3:a3:83:04:02:af:75:0b:e1:
         0f:2d:3d:c0:f7:60:49:78:40:9f:82:f4:69:bf:a5:69:d9:12:
         c2:52:49:8b:53:8a:d1:71:c1:41:a5:53:78:8c:d5:f1:74:c7:
         c3:a3:d6:89:c0:20:f5:b9:0d:d7:3e:56:ac:77:0b:da:00:cf:
         4c:fe:95:b9:48:99:91:8f:35:c0:47:d2:11:28:ed:33:a0:1a:
         b8:25:39:d2:e1:5f:19:5f:6c:9a:95:e8:fd:77:c3:6d:db:9e:
         d9:c1
-----BEGIN CERTIFICATE-----
MIICVzCCAcCgAwIBAgIBBzANBgkqhkiG9w0BAQsFADAgMQswCQYDVQQGEwJLUjER
MA8GA1UEAwwIaGVlZXllMG4wIhgPMjAxNDAzMDEwMDAwMDBaGA8yMDI0MDIyNzAw
MDAwMFowJTELMAkGA1UEBhMCS1IxFjAUBgNVBAMMDXMucHN0YXRpYy5uZXQwgZ8w
DQYJKoZIhvcNAQEBBQADgY0AMIGJAoGBAJMqU4fgOi5Iz49+nS6gRdaWxK5CvZ8o
mefs+u9eA4fHQfRgiRCPukcQR6dLjvkcEH3m4ZRGLLb8WIh7sUqXtJxh1coV/jec
7IAjvtXC8XgdXWKROFD066QmPrtnw5BDWEGN8uXmhRO+Dcgcor7ksOwOgY8IW9mp
F0uzgD7zvQRjAgMBAAGjgZcwgZQwCQYDVR0TBAIwADAsBglghkgBhvhCAQ0EHxYd
T3BlblNTTCBHZW5lcmF0ZWQgQ2VydGlmaWNhdGUwHQYDVR0OBBYEFB9epqJeoxsh
DOgNHHTkSa47N8klMDoGA1UdIwQzMDGhJKQiMCAxCzAJBgNVBAYTAktSMREwDwYD
VQQDDAhoZWVleWUwboIJANsxc+gwTAk6MA0GCSqGSIb3DQEBCwUAA4GBAGttN4ss
4tip4fJmE3enQ2pkrrZPwToXPPBsxOOjgwQCr3UL4Q8tPcD3YEl4QJ+C9Gm/pWnZ
EsJSSYtTitFxwUGlU3iM1fF0x8Oj1onAIPW5Ddc+Vqx3C9oAz0z+lblImZGPNcBH
0hEo7TOgGrglOdLhXxlfbJqV6P13w23bntnB
-----END CERTIFICATE-----
