Certificate:
    Data:
        Version: 3 (0x2)
        Serial Number: 8 (0x8)
    Signature Algorithm: sha256WithRSAEncryption
        Issuer: C=KR, CN=heeeye0n
        Validity
            Not Before: Mar  1 00:00:00 2014 GMT
            Not After : Feb 27 00:00:00 2024 GMT
        Subject: C=KR, CN=nv.veta.naver.com
        Subject Public Key Info:
            Public Key Algorithm: rsaEncryption
                Public-Key: (1024 bit)
                Modulus:
                    00:c1:7c:6e:0d:ef:3a:a3:57:3b:eb:90:25:53:4f:
                    4b:03:62:09:88:03:cc:4f:11:e5:61:33:1b:3d:43:
                    9b:bb:60:6e:fb:cf:29:78:2c:37:b1:2d:43:3f:cb:
                    99:14:fd:04:a3:42:48:6c:df:77:8a:61:b9:07:d3:
                    2b:76:1f:9d:ff:c7:8b:dd:a0:3c:92:51:f2:86:03:
                    7b:ac:ff:ac:bc:23:ce:b9:a8:f6:12:1e:70:0c:5d:
                    39:b6:bf:a5:1a:70:af:bc:a9:96:55:22:ab:41:2d:
                    cb:27:74:16:5f:da:36:44:36:13:a9:6c:c3:37:e5:
                    38:e5:e3:2d:9a:54:ae:46:e5
                Exponent: 65537 (0x10001)
        X509v3 extensions:
            X509v3 Basic Constraints: 
                CA:FALSE
            Netscape Comment: 
                OpenSSL Generated Certificate
            X509v3 Subject Key Identifier: 
                9A:9B:4C:4B:71:58:12:14:28:CF:1F:43:C7:8F:90:7A:97:3A:02:A5
            X509v3 Authority Key Identifier: 
                DirName:/C=KR/CN=heeeye0n
                serial:DB:31:73:E8:30:4C:09:3A

    Signature Algorithm: sha256WithRSAEncryption
         37:7c:b0:ad:31:52:28:06:1e:65:33:ed:42:e7:5f:5a:ea:74:
         ab:9c:83:c0:f1:19:ef:3f:43:4f:22:ba:e1:d5:9f:c8:ef:9f:
         ee:13:c3:1b:f2:fd:ca:fe:cf:68:66:9a:f6:eb:9a:ae:75:28:
         fc:09:14:64:ac:80:de:df:0f:8e:ce:1c:9d:56:b8:a0:57:68:
         c2:fe:6f:74:22:42:83:89:a6:76:34:49:63:6f:1e:2e:18:43:
         0b:56:08:e6:a2:68:74:c1:81:df:d8:02:5e:93:a0:fb:7d:17:
         06:c9:19:ef:8d:48:b4:d0:fe:44:f8:37:5f:98:79:2f:a5:de:
         82:2a
-----BEGIN CERTIFICATE-----
MIICWzCCAcSgAwIBAgIBCDANBgkqhkiG9w0BAQsFADAgMQswCQYDVQQGEwJLUjER
MA8GA1UEAwwIaGVlZXllMG4wIhgPMjAxNDAzMDEwMDAwMDBaGA8yMDI0MDIyNzAw
MDAwMFowKTELMAkGA1UEBhMCS1IxGjAYBgNVBAMMEW52LnZldGEubmF2ZXIuY29t
MIGfMA0GCSqGSIb3DQEBAQUAA4GNADCBiQKBgQDBfG4N7zqjVzvrkCVTT0sDYgmI
A8xPEeVhMxs9Q5u7YG77zyl4LDexLUM/y5kU/QSjQkhs33eKYbkH0yt2H53/x4vd
oDySUfKGA3us/6y8I865qPYSHnAMXTm2v6UacK+8qZZVIqtBLcsndBZf2jZENhOp
bMM35Tjl4y2aVK5G5QIDAQABo4GXMIGUMAkGA1UdEwQCMAAwLAYJYIZIAYb4QgEN
BB8WHU9wZW5TU0wgR2VuZXJhdGVkIENlcnRpZmljYXRlMB0GA1UdDgQWBBSam0xL
cVgSFCjPH0PHj5B6lzoCpTA6BgNVHSMEMzAxoSSkIjAgMQswCQYDVQQGEwJLUjER
MA8GA1UEAwwIaGVlZXllMG6CCQDbMXPoMEwJOjANBgkqhkiG9w0BAQsFAAOBgQA3
fLCtMVIoBh5lM+1C519a6nSrnIPA8RnvP0NPIrrh1Z/I75/uE8Mb8v3K/s9oZpr2
65qudSj8CRRkrIDe3w+OzhydVrigV2jC/m90IkKDiaZ2NEljbx4uGEMLVgjmomh0
wYHf2AJek6D7fRcGyRnvjUi00P5E+DdfmHkvpd6CKg==
-----END CERTIFICATE-----
